target datalayout = "e-m:e-p270:32:32-p271:32:32-p272:64:64-i64:64-i128:128-f80:128-n8:16:32:64-S128"
target triple = "x86_64-pc-linux-gnu"

%"class.std::__cxx11::basic_string" = type { %"struct.std::__cxx11::basic_string<char>::_Alloc_hider", i64, %union.anon }
%"struct.std::__cxx11::basic_string<char>::_Alloc_hider" = type { ptr }
%union.anon = type { i64, [8 x i8] }
%"class.std::basic_ifstream" = type { %"class.std::basic_istream.base", %"class.std::basic_filebuf", %"class.std::basic_ios" }
%"class.std::basic_istream.base" = type { ptr, i64 }
%"class.std::basic_filebuf" = type { %"class.std::basic_streambuf", %union.pthread_mutex_t, %"class.std::__basic_file", i32, %struct.__mbstate_t, %struct.__mbstate_t, %struct.__mbstate_t, ptr, i64, i8, i8, i8, i8, ptr, ptr, i8, ptr, ptr, i64, ptr, ptr }
%"class.std::basic_streambuf" = type { ptr, ptr, ptr, ptr, ptr, ptr, ptr, %"class.std::locale" }
%"class.std::locale" = type { ptr }
%union.pthread_mutex_t = type { %struct.__pthread_mutex_s }
%struct.__pthread_mutex_s = type { i32, i32, i32, i32, i32, i16, i16, %struct.__pthread_internal_list }
%struct.__pthread_internal_list = type { ptr, ptr }
%"class.std::__basic_file" = type <{ ptr, i8, [7 x i8] }>
%struct.__mbstate_t = type { i32, %union.anon.9 }
%union.anon.9 = type { i32 }
%"class.std::basic_ios" = type { %"class.std::ios_base", ptr, i8, i8, ptr, ptr, ptr, ptr }
%"class.std::ios_base" = type { ptr, i64, i64, i32, i32, i32, ptr, %"struct.std::ios_base::_Words", [8 x %"struct.std::ios_base::_Words"], i32, ptr, %"class.std::locale" }
%"struct.std::ios_base::_Words" = type { ptr, i64 }
%"class.std::__cxx11::basic_ostringstream" = type { %"class.std::basic_ostream.base", %"class.std::__cxx11::basic_stringbuf", %"class.std::basic_ios" }
%"class.std::basic_ostream.base" = type { ptr }
%"class.std::__cxx11::basic_stringbuf" = type { %"class.std::basic_streambuf", i32, %"class.std::__cxx11::basic_string" }
%class.cmParseMumpsCoverage = type { ptr, %"class.std::map", ptr, ptr }
%"class.std::map" = type { %"class.std::_Rb_tree" }
%"class.std::_Rb_tree" = type { %"struct.std::_Rb_tree<std::__cxx11::basic_string<char>, std::pair<const std::__cxx11::basic_string<char>, std::__cxx11::basic_string<char>>, std::_Select1st<std::pair<const std::__cxx11::basic_string<char>, std::__cxx11::basic_string<char>>>, std::less<std::__cxx11::basic_string<char>>>::_Rb_tree_impl" }
%"struct.std::_Rb_tree<std::__cxx11::basic_string<char>, std::pair<const std::__cxx11::basic_string<char>, std::__cxx11::basic_string<char>>, std::_Select1st<std::pair<const std::__cxx11::basic_string<char>, std::__cxx11::basic_string<char>>>, std::less<std::__cxx11::basic_string<char>>>::_Rb_tree_impl" = type { %"struct.std::_Rb_tree_key_compare", %"struct.std::_Rb_tree_header" }
%"struct.std::_Rb_tree_key_compare" = type { %"struct.std::less" }
%"struct.std::less" = type { i8 }
%"struct.std::_Rb_tree_header" = type { %"struct.std::_Rb_tree_node_base", i64 }
%"struct.std::_Rb_tree_node_base" = type { i32, ptr, ptr, ptr }

@.str.8 = private unnamed_addr constant [125 x i8] c"generated/home/dtcxzyw/WorkSpace/Projects/compilers/llvm-opt-benchmark/bench/cmake/CMake/Source/CTest/cmParseGTMCoverage.cxx\00", align 1
@.str.10 = private unnamed_addr constant [30 x i8] c"Could not find entry point : \00", align 1
@.str.11 = private unnamed_addr constant [5 x i8] c" in \00", align 1
@.str.12 = private unnamed_addr constant [2 x i8] c"\0A\00", align 1

; Function Attrs: mustprogress uwtable
define dso_local noundef zeroext i1 @_ZN18cmParseGTMCoverage23FindFunctionInMumpsFileERKNSt7__cxx1112basic_stringIcSt11char_traitsIcESaIcEEES7_Ri(ptr noundef nonnull align 8 dereferenceable(72) %0, ptr noundef nonnull align 8 dereferenceable(32) %1, ptr noundef nonnull align 8 dereferenceable(32) %2, ptr noundef nonnull align 4 dereferenceable(4) %3) #4 align 2 personality ptr @__gxx_personality_v0 {
  %5 = alloca i1, align 1
  %6 = alloca ptr, align 8
  %7 = alloca ptr, align 8
  %8 = alloca ptr, align 8
  %9 = alloca ptr, align 8
  %10 = alloca %"class.std::basic_ifstream", align 8
  %11 = alloca ptr, align 8
  %12 = alloca i32, align 4
  %13 = alloca i32, align 4
  %14 = alloca %"class.std::__cxx11::basic_string", align 8
  %15 = alloca i32, align 4
  %16 = alloca i64, align 8
  %17 = alloca i8, align 1
  %18 = alloca i8, align 1
  %19 = alloca i8, align 1
  %20 = alloca %"class.std::__cxx11::basic_ostringstream", align 8
  %21 = alloca %"class.std::__cxx11::basic_string", align 8
  store ptr %0, ptr %6, align 8
  store ptr %1, ptr %7, align 8
  store ptr %2, ptr %8, align 8
  store ptr %3, ptr %9, align 8
  %22 = load ptr, ptr %6, align 8
  %23 = load ptr, ptr %7, align 8
  %24 = call noundef ptr @_ZNKSt7__cxx1112basic_stringIcSt11char_traitsIcESaIcEE5c_strEv(ptr noundef nonnull align 8 dereferenceable(32) %23) #3
  call void @_ZNSt14basic_ifstreamIcSt11char_traitsIcEEC1EPKcSt13_Ios_Openmode(ptr noundef nonnull align 8 dereferenceable(256) %10, ptr noundef %24, i32 noundef 8)
  %25 = load ptr, ptr %10, align 8
  %26 = getelementptr i8, ptr %25, i64 -24
  %27 = load i64, ptr %26, align 8
  %28 = getelementptr inbounds i8, ptr %10, i64 %27
  %29 = invoke noundef zeroext i1 @_ZNKSt9basic_iosIcSt11char_traitsIcEEntEv(ptr noundef nonnull align 8 dereferenceable(264) %28)
          to label %30 unwind label %32

30:                                               ; preds = %4
  br i1 %29, label %31, label %36

31:                                               ; preds = %30
  store i1 false, ptr %5, align 1
  store i32 1, ptr %13, align 4
  br label %135

32:                                               ; preds = %4
  %33 = landingpad { ptr, i32 }
          cleanup
  %34 = extractvalue { ptr, i32 } %33, 0
  store ptr %34, ptr %11, align 8
  %35 = extractvalue { ptr, i32 } %33, 1
  store i32 %35, ptr %12, align 4
  br label %137

36:                                               ; preds = %30
  call void @_ZNSt7__cxx1112basic_stringIcSt11char_traitsIcESaIcEEC1Ev(ptr noundef nonnull align 8 dereferenceable(32) %14) #3
  store i32 0, ptr %15, align 4
  br label %37

37:                                               ; preds = %98, %36
  %38 = invoke noundef zeroext i1 @_ZN5cmsys11SystemTools17GetLineFromStreamERSiRNSt7__cxx1112basic_stringIcSt11char_traitsIcESaIcEEEPbm(ptr noundef nonnull align 8 dereferenceable(16) %10, ptr noundef nonnull align 8 dereferenceable(32) %14, ptr noundef null, i64 noundef -1)
          to label %39 unwind label %65

39:                                               ; preds = %37
  br i1 %38, label %40, label %101

40:                                               ; preds = %39
  %41 = load ptr, ptr %8, align 8
  %42 = call noundef i64 @_ZNKSt7__cxx1112basic_stringIcSt11char_traitsIcESaIcEE4findERKS4_m(ptr noundef nonnull align 8 dereferenceable(32) %14, ptr noundef nonnull align 8 dereferenceable(32) %41, i64 noundef 0) #3
  store i64 %42, ptr %16, align 8
  %43 = load i64, ptr %16, align 8
  %44 = icmp eq i64 %43, 0
  br i1 %44, label %45, label %70

45:                                               ; preds = %40
  %46 = load ptr, ptr %8, align 8
  %47 = call noundef i64 @_ZNKSt7__cxx1112basic_stringIcSt11char_traitsIcESaIcEE4sizeEv(ptr noundef nonnull align 8 dereferenceable(32) %46) #3
  %48 = invoke noundef nonnull align 1 dereferenceable(1) ptr @_ZNSt7__cxx1112basic_stringIcSt11char_traitsIcESaIcEEixEm(ptr noundef nonnull align 8 dereferenceable(32) %14, i64 noundef %47)
          to label %49 unwind label %65

49:                                               ; preds = %45
  %50 = load i8, ptr %48, align 1
  store i8 %50, ptr %17, align 1
  %51 = load i8, ptr %17, align 1
  %52 = sext i8 %51 to i32
  %53 = icmp eq i32 %52, 32
  br i1 %53, label %62, label %54

54:                                               ; preds = %49
  %55 = load i8, ptr %17, align 1
  %56 = sext i8 %55 to i32
  %57 = icmp eq i32 %56, 40
  br i1 %57, label %62, label %58

58:                                               ; preds = %54
  %59 = load i8, ptr %17, align 1
  %60 = sext i8 %59 to i32
  %61 = icmp eq i32 %60, 9
  br i1 %61, label %62, label %69

62:                                               ; preds = %58, %54, %49
  %63 = load i32, ptr %15, align 4
  %64 = load ptr, ptr %9, align 8
  store i32 %63, ptr %64, align 4
  store i1 true, ptr %5, align 1
  store i32 1, ptr %13, align 4
  br label %133

65:                                               ; preds = %103, %75, %73, %45, %37
  %66 = landingpad { ptr, i32 }
          cleanup
  %67 = extractvalue { ptr, i32 } %66, 0
  store ptr %67, ptr %11, align 8
  %68 = extractvalue { ptr, i32 } %66, 1
  store i32 %68, ptr %12, align 4
  br label %134

69:                                               ; preds = %58
  br label %70

70:                                               ; preds = %69, %40
  %71 = load i64, ptr %16, align 8
  %72 = icmp eq i64 %71, 1
  br i1 %72, label %73, label %98

73:                                               ; preds = %70
  %74 = invoke noundef nonnull align 1 dereferenceable(1) ptr @_ZNSt7__cxx1112basic_stringIcSt11char_traitsIcESaIcEEixEm(ptr noundef nonnull align 8 dereferenceable(32) %14, i64 noundef 0)
          to label %75 unwind label %65

75:                                               ; preds = %73
  %76 = load i8, ptr %74, align 1
  store i8 %76, ptr %18, align 1
  %77 = load ptr, ptr %8, align 8
  %78 = call noundef i64 @_ZNKSt7__cxx1112basic_stringIcSt11char_traitsIcESaIcEE4sizeEv(ptr noundef nonnull align 8 dereferenceable(32) %77) #3
  %79 = add i64 %78, 1
  %80 = invoke noundef nonnull align 1 dereferenceable(1) ptr @_ZNSt7__cxx1112basic_stringIcSt11char_traitsIcESaIcEEixEm(ptr noundef nonnull align 8 dereferenceable(32) %14, i64 noundef %79)
          to label %81 unwind label %65

81:                                               ; preds = %75
  %82 = load i8, ptr %80, align 1
  store i8 %82, ptr %19, align 1
  %83 = load i8, ptr %18, align 1
  %84 = sext i8 %83 to i32
  %85 = icmp eq i32 %84, 37
  br i1 %85, label %86, label %97

86:                                               ; preds = %81
  %87 = load i8, ptr %19, align 1
  %88 = sext i8 %87 to i32
  %89 = icmp eq i32 %88, 32
  br i1 %89, label %94, label %90

90:                                               ; preds = %86
  %91 = load i8, ptr %19, align 1
  %92 = sext i8 %91 to i32
  %93 = icmp eq i32 %92, 40
  br i1 %93, label %94, label %97

94:                                               ; preds = %90, %86
  %95 = load i32, ptr %15, align 4
  %96 = load ptr, ptr %9, align 8
  store i32 %95, ptr %96, align 4
  store i1 true, ptr %5, align 1
  store i32 1, ptr %13, align 4
  br label %133

97:                                               ; preds = %90, %81
  br label %98

98:                                               ; preds = %97, %70
  %99 = load i32, ptr %15, align 4
  %100 = add nsw i32 %99, 1
  store i32 %100, ptr %15, align 4
  br label %37, !llvm.loop !9

101:                                              ; preds = %39
  %102 = load ptr, ptr %9, align 8
  store i32 0, ptr %102, align 4
  br label %103

103:                                              ; preds = %101
  invoke void @_ZNSt7__cxx1119basic_ostringstreamIcSt11char_traitsIcESaIcEEC1Ev(ptr noundef nonnull align 8 dereferenceable(112) %20)
          to label %104 unwind label %65

104:                                              ; preds = %103
  %105 = invoke noundef nonnull align 8 dereferenceable(8) ptr @_ZStlsISt11char_traitsIcEERSt13basic_ostreamIcT_ES5_PKc(ptr noundef nonnull align 8 dereferenceable(8) %20, ptr noundef @.str.10)
          to label %106 unwind label %124

106:                                              ; preds = %104
  %107 = load ptr, ptr %8, align 8
  %108 = invoke noundef nonnull align 8 dereferenceable(8) ptr @_ZStlsIcSt11char_traitsIcESaIcEERSt13basic_ostreamIT_T0_ES7_RKNSt7__cxx1112basic_stringIS4_S5_T1_EE(ptr noundef nonnull align 8 dereferenceable(8) %105, ptr noundef nonnull align 8 dereferenceable(32) %107)
          to label %109 unwind label %124

109:                                              ; preds = %106
  %110 = invoke noundef nonnull align 8 dereferenceable(8) ptr @_ZStlsISt11char_traitsIcEERSt13basic_ostreamIcT_ES5_PKc(ptr noundef nonnull align 8 dereferenceable(8) %108, ptr noundef @.str.11)
          to label %111 unwind label %124

111:                                              ; preds = %109
  %112 = load ptr, ptr %7, align 8
  %113 = invoke noundef nonnull align 8 dereferenceable(8) ptr @_ZStlsIcSt11char_traitsIcESaIcEERSt13basic_ostreamIT_T0_ES7_RKNSt7__cxx1112basic_stringIS4_S5_T1_EE(ptr noundef nonnull align 8 dereferenceable(8) %110, ptr noundef nonnull align 8 dereferenceable(32) %112)
          to label %114 unwind label %124

114:                                              ; preds = %111
  %115 = invoke noundef nonnull align 8 dereferenceable(8) ptr @_ZStlsISt11char_traitsIcEERSt13basic_ostreamIcT_ES5_PKc(ptr noundef nonnull align 8 dereferenceable(8) %113, ptr noundef @.str.12)
          to label %116 unwind label %124

116:                                              ; preds = %114
  %117 = getelementptr inbounds %class.cmParseMumpsCoverage, ptr %22, i32 0, i32 3
  %118 = load ptr, ptr %117, align 8
  invoke void @_ZNKSt7__cxx1119basic_ostringstreamIcSt11char_traitsIcESaIcEE3strEv(ptr dead_on_unwind writable sret(%"class.std::__cxx11::basic_string") align 8 %21, ptr noundef nonnull align 8 dereferenceable(112) %20)
          to label %119 unwind label %124

119:                                              ; preds = %116
  %120 = call noundef ptr @_ZNKSt7__cxx1112basic_stringIcSt11char_traitsIcESaIcEE5c_strEv(ptr noundef nonnull align 8 dereferenceable(32) %21) #3
  invoke void @_ZN7cmCTest3LogEiPKciS1_b(ptr noundef nonnull align 8 dereferenceable(8) %118, i32 noundef 7, ptr noundef @.str.8, i32 noundef 155, ptr noundef %120, i1 noundef zeroext false)
          to label %121 unwind label %128

121:                                              ; preds = %119
  call void @_ZNSt7__cxx1112basic_stringIcSt11char_traitsIcESaIcEED1Ev(ptr noundef nonnull align 8 dereferenceable(32) %21) #3
  call void @_ZNSt7__cxx1119basic_ostringstreamIcSt11char_traitsIcESaIcEED1Ev(ptr noundef nonnull align 8 dereferenceable(112) %20) #3
  br label %122

122:                                              ; preds = %121
  br label %123

123:                                              ; preds = %122
  store i1 false, ptr %5, align 1
  store i32 1, ptr %13, align 4
  br label %133

124:                                              ; preds = %116, %114, %111, %109, %106, %104
  %125 = landingpad { ptr, i32 }
          cleanup
  %126 = extractvalue { ptr, i32 } %125, 0
  store ptr %126, ptr %11, align 8
  %127 = extractvalue { ptr, i32 } %125, 1
  store i32 %127, ptr %12, align 4
  br label %132

128:                                              ; preds = %119
  %129 = landingpad { ptr, i32 }
          cleanup
  %130 = extractvalue { ptr, i32 } %129, 0
  store ptr %130, ptr %11, align 8
  %131 = extractvalue { ptr, i32 } %129, 1
  store i32 %131, ptr %12, align 4
  call void @_ZNSt7__cxx1112basic_stringIcSt11char_traitsIcESaIcEED1Ev(ptr noundef nonnull align 8 dereferenceable(32) %21) #3
  br label %132

132:                                              ; preds = %128, %124
  call void @_ZNSt7__cxx1119basic_ostringstreamIcSt11char_traitsIcESaIcEED1Ev(ptr noundef nonnull align 8 dereferenceable(112) %20) #3
  br label %134

133:                                              ; preds = %123, %94, %62
  call void @_ZNSt7__cxx1112basic_stringIcSt11char_traitsIcESaIcEED1Ev(ptr noundef nonnull align 8 dereferenceable(32) %14) #3
  br label %135

134:                                              ; preds = %132, %65
  call void @_ZNSt7__cxx1112basic_stringIcSt11char_traitsIcESaIcEED1Ev(ptr noundef nonnull align 8 dereferenceable(32) %14) #3
  br label %137

135:                                              ; preds = %133, %31
  call void @_ZNSt14basic_ifstreamIcSt11char_traitsIcEED1Ev(ptr noundef nonnull align 8 dereferenceable(256) %10) #3
  %136 = load i1, ptr %5, align 1
  ret i1 %136

137:                                              ; preds = %134, %32
  call void @_ZNSt14basic_ifstreamIcSt11char_traitsIcEED1Ev(ptr noundef nonnull align 8 dereferenceable(256) %10) #3
  br label %138

138:                                              ; preds = %137
  %139 = load ptr, ptr %11, align 8
  %140 = load i32, ptr %12, align 4
  %141 = insertvalue { ptr, i32 } poison, ptr %139, 0
  %142 = insertvalue { ptr, i32 } %141, i32 %140, 1
  resume { ptr, i32 } %142
}