; Function Attrs: mustprogress uwtable
define dso_local noundef zeroext i1 @_ZN18cmParseGTMCoverage23FindFunctionInMumpsFileERKNSt7__cxx1112basic_stringIcSt11char_traitsIcESaIcEEES7_Ri(ptr nocapture noundef nonnull readonly align 8 dereferenceable(72) %0, ptr noundef nonnull align 8 dereferenceable(32) %1, ptr noundef nonnull align 8 dereferenceable(32) %2, ptr nocapture noundef nonnull writeonly align 4 dereferenceable(4) %3) local_unnamed_addr #3 align 2 personality ptr @__gxx_personality_v0 {
  %5 = alloca %"class.std::basic_ifstream", align 8
  %6 = alloca %"class.std::__cxx11::basic_string", align 8
  %7 = alloca %"class.std::__cxx11::basic_ostringstream", align 8
  %8 = alloca %"class.std::__cxx11::basic_string", align 8
  %9 = tail call noundef ptr @_ZNKSt7__cxx1112basic_stringIcSt11char_traitsIcESaIcEE5c_strEv(ptr noundef nonnull align 8 dereferenceable(32) %1) #16
  call void @_ZNSt14basic_ifstreamIcSt11char_traitsIcEEC1EPKcSt13_Ios_Openmode(ptr noundef nonnull align 8 dereferenceable(256) %5, ptr noundef %9, i32 noundef 8)
  %10 = load ptr, ptr %5, align 8
  %11 = getelementptr i8, ptr %10, i64 -24
  %12 = load i64, ptr %11, align 8
  %13 = getelementptr inbounds i8, ptr %5, i64 %12
  %14 = invoke noundef zeroext i1 @_ZNKSt9basic_iosIcSt11char_traitsIcEEntEv(ptr noundef nonnull align 8 dereferenceable(264) %13)
          to label %15 unwind label %16

15:                                               ; preds = %4
  br i1 %14, label %69, label %18

16:                                               ; preds = %4
  %17 = landingpad { ptr, i32 }
          cleanup
  br label %70

18:                                               ; preds = %15
  call void @_ZNSt7__cxx1112basic_stringIcSt11char_traitsIcESaIcEEC1Ev(ptr noundef nonnull align 8 dereferenceable(32) %6) #16
  br label %19

19:                                               ; preds = %43, %18
  %.036 = phi i32 [ 0, %18 ], [ %44, %43 ]
  %20 = invoke noundef zeroext i1 @_ZN5cmsys11SystemTools17GetLineFromStreamERSiRNSt7__cxx1112basic_stringIcSt11char_traitsIcESaIcEEEPbm(ptr noundef nonnull align 8 dereferenceable(16) %5, ptr noundef nonnull align 8 dereferenceable(32) %6, ptr noundef null, i64 noundef -1)
          to label %21 unwind label %.loopexit

21:                                               ; preds = %19
  br i1 %20, label %22, label %45

22:                                               ; preds = %21
  %23 = call noundef i64 @_ZNKSt7__cxx1112basic_stringIcSt11char_traitsIcESaIcEE4findERKS4_m(ptr noundef nonnull align 8 dereferenceable(32) %6, ptr noundef nonnull align 8 dereferenceable(32) %2, i64 noundef 0) #16
  switch i64 %23, label %43 [
    i64 0, label %24
    i64 1, label %30
  ]

24:                                               ; preds = %22
  %25 = call noundef i64 @_ZNKSt7__cxx1112basic_stringIcSt11char_traitsIcESaIcEE4sizeEv(ptr noundef nonnull align 8 dereferenceable(32) %2) #16
  %26 = invoke noundef nonnull align 1 dereferenceable(1) ptr @_ZNSt7__cxx1112basic_stringIcSt11char_traitsIcESaIcEEixEm(ptr noundef nonnull align 8 dereferenceable(32) %6, i64 noundef %25)
          to label %27 unwind label %.loopexit

27:                                               ; preds = %24
  %28 = load i8, ptr %26, align 1
  switch i8 %28, label %43 [
    i8 40, label %29
    i8 32, label %29
    i8 9, label %29
  ]

29:                                               ; preds = %27, %27, %27
  store i32 %.036, ptr %3, align 4
  br label %67

.loopexit:                                        ; preds = %19, %24, %30, %32
  %lpad.loopexit = landingpad { ptr, i32 }
          cleanup
  br label %68

.loopexit.split-lp:                               ; preds = %45
  %lpad.loopexit.split-lp = landingpad { ptr, i32 }
          cleanup
  br label %68

30:                                               ; preds = %22
  %31 = invoke noundef nonnull align 1 dereferenceable(1) ptr @_ZNSt7__cxx1112basic_stringIcSt11char_traitsIcESaIcEEixEm(ptr noundef nonnull align 8 dereferenceable(32) %6, i64 noundef 0)
          to label %32 unwind label %.loopexit

32:                                               ; preds = %30
  %33 = load i8, ptr %31, align 1
  %34 = call noundef i64 @_ZNKSt7__cxx1112basic_stringIcSt11char_traitsIcESaIcEE4sizeEv(ptr noundef nonnull align 8 dereferenceable(32) %2) #16
  %35 = add i64 %34, 1
  %36 = invoke noundef nonnull align 1 dereferenceable(1) ptr @_ZNSt7__cxx1112basic_stringIcSt11char_traitsIcESaIcEEixEm(ptr noundef nonnull align 8 dereferenceable(32) %6, i64 noundef %35)
          to label %37 unwind label %.loopexit

37:                                               ; preds = %32
  %38 = icmp eq i8 %33, 37
  br i1 %38, label %39, label %43

39:                                               ; preds = %37
  %40 = load i8, ptr %36, align 1
  %41 = and i8 %40, -9
  %or.cond8 = icmp eq i8 %41, 32
  br i1 %or.cond8, label %42, label %43

42:                                               ; preds = %39
  store i32 %.036, ptr %3, align 4
  br label %67

43:                                               ; preds = %27, %22, %37, %39
  %44 = add nuw nsw i32 %.036, 1
  br label %19, !llvm.loop !23

45:                                               ; preds = %21
  store i32 0, ptr %3, align 4
  invoke void @_ZNSt7__cxx1119basic_ostringstreamIcSt11char_traitsIcESaIcEEC1Ev(ptr noundef nonnull align 8 dereferenceable(112) %7)
          to label %46 unwind label %.loopexit.split-lp

46:                                               ; preds = %45
  %47 = invoke noundef nonnull align 8 dereferenceable(8) ptr @_ZStlsISt11char_traitsIcEERSt13basic_ostreamIcT_ES5_PKc(ptr noundef nonnull align 8 dereferenceable(8) %7, ptr noundef nonnull @.str.10)
          to label %48 unwind label %62

48:                                               ; preds = %46
  %49 = invoke noundef nonnull align 8 dereferenceable(8) ptr @_ZStlsIcSt11char_traitsIcESaIcEERSt13basic_ostreamIT_T0_ES7_RKNSt7__cxx1112basic_stringIS4_S5_T1_EE(ptr noundef nonnull align 8 dereferenceable(8) %47, ptr noundef nonnull align 8 dereferenceable(32) %2)
          to label %50 unwind label %62

50:                                               ; preds = %48
  %51 = invoke noundef nonnull align 8 dereferenceable(8) ptr @_ZStlsISt11char_traitsIcEERSt13basic_ostreamIcT_ES5_PKc(ptr noundef nonnull align 8 dereferenceable(8) %49, ptr noundef nonnull @.str.11)
          to label %52 unwind label %62

52:                                               ; preds = %50
  %53 = invoke noundef nonnull align 8 dereferenceable(8) ptr @_ZStlsIcSt11char_traitsIcESaIcEERSt13basic_ostreamIT_T0_ES7_RKNSt7__cxx1112basic_stringIS4_S5_T1_EE(ptr noundef nonnull align 8 dereferenceable(8) %51, ptr noundef nonnull align 8 dereferenceable(32) %1)
          to label %54 unwind label %62

54:                                               ; preds = %52
  %55 = invoke noundef nonnull align 8 dereferenceable(8) ptr @_ZStlsISt11char_traitsIcEERSt13basic_ostreamIcT_ES5_PKc(ptr noundef nonnull align 8 dereferenceable(8) %53, ptr noundef nonnull @.str.12)
          to label %56 unwind label %62

56:                                               ; preds = %54
  %57 = getelementptr inbounds i8, ptr %0, i64 64
  %58 = load ptr, ptr %57, align 8
  invoke void @_ZNKSt7__cxx1119basic_ostringstreamIcSt11char_traitsIcESaIcEE3strEv(ptr dead_on_unwind nonnull writable sret(%"class.std::__cxx11::basic_string") align 8 %8, ptr noundef nonnull align 8 dereferenceable(112) %7)
          to label %59 unwind label %62

59:                                               ; preds = %56
  %60 = call noundef ptr @_ZNKSt7__cxx1112basic_stringIcSt11char_traitsIcESaIcEE5c_strEv(ptr noundef nonnull align 8 dereferenceable(32) %8) #16
  invoke void @_ZN7cmCTest3LogEiPKciS1_b(ptr noundef nonnull align 8 dereferenceable(8) %58, i32 noundef 7, ptr noundef nonnull @.str.8, i32 noundef 155, ptr noundef %60, i1 noundef zeroext false)
          to label %61 unwind label %64

61:                                               ; preds = %59
  call void @_ZNSt7__cxx1112basic_stringIcSt11char_traitsIcESaIcEED1Ev(ptr noundef nonnull align 8 dereferenceable(32) %8) #16
  call void @_ZNSt7__cxx1119basic_ostringstreamIcSt11char_traitsIcESaIcEED1Ev(ptr noundef nonnull align 8 dereferenceable(112) %7) #16
  br label %67

62:                                               ; preds = %56, %54, %52, %50, %48, %46
  %63 = landingpad { ptr, i32 }
          cleanup
  br label %66

64:                                               ; preds = %59
  %65 = landingpad { ptr, i32 }
          cleanup
  call void @_ZNSt7__cxx1112basic_stringIcSt11char_traitsIcESaIcEED1Ev(ptr noundef nonnull align 8 dereferenceable(32) %8) #16
  br label %66

66:                                               ; preds = %64, %62
  %.pn = phi { ptr, i32 } [ %65, %64 ], [ %63, %62 ]
  call void @_ZNSt7__cxx1119basic_ostringstreamIcSt11char_traitsIcESaIcEED1Ev(ptr noundef nonnull align 8 dereferenceable(112) %7) #16
  br label %68

67:                                               ; preds = %61, %42, %29
  call void @_ZNSt7__cxx1112basic_stringIcSt11char_traitsIcESaIcEED1Ev(ptr noundef nonnull align 8 dereferenceable(32) %6) #16
  br label %69

68:                                               ; preds = %.loopexit, %.loopexit.split-lp, %66
  %.pn38 = phi { ptr, i32 } [ %.pn, %66 ], [ %lpad.loopexit, %.loopexit ], [ %lpad.loopexit.split-lp, %.loopexit.split-lp ]
  call void @_ZNSt7__cxx1112basic_stringIcSt11char_traitsIcESaIcEED1Ev(ptr noundef nonnull align 8 dereferenceable(32) %6) #16
  br label %70

69:                                               ; preds = %15, %67
  %.1 = phi i1 [ %20, %67 ], [ false, %15 ]
  call void @_ZNSt14basic_ifstreamIcSt11char_traitsIcEED1Ev(ptr noundef nonnull align 8 dereferenceable(256) %5) #16
  ret i1 %.1

70:                                               ; preds = %68, %16
  %.pn38.pn = phi { ptr, i32 } [ %.pn38, %68 ], [ %17, %16 ]
  call void @_ZNSt14basic_ifstreamIcSt11char_traitsIcEED1Ev(ptr noundef nonnull align 8 dereferenceable(256) %5) #16
  resume { ptr, i32 } %.pn38.pn
}